; Function Attrs: mustprogress uwtable
define hidden noundef i32 @_ZN7datalog23finite_product_relation16get_full_rel_idxEv(ptr noundef nonnull align 8 dereferenceable(160) %this) local_unnamed_addr #3 align 2 {
entry:
  %m_full_rel_idx = getelementptr inbounds i8, ptr %this, i64 128
  %0 = load i32, ptr %m_full_rel_idx, align 8
  %cmp = icmp eq i32 %0, -1
  br i1 %cmp, label %if.then, label %if.end

if.then:                                          ; preds = %entry
  %m_available_rel_indexes.i = getelementptr inbounds i8, ptr %this, i64 120
  %1 = load ptr, ptr %m_available_rel_indexes.i, align 8
  %cmp.i.i = icmp eq ptr %1, null
  br i1 %cmp.i.i, label %if.else.i, label %_ZNK6vectorIjLb0EjE5emptyEv.exit.i

_ZNK6vectorIjLb0EjE5emptyEv.exit.i:               ; preds = %if.then
  %arrayidx.i.i = getelementptr inbounds i8, ptr %1, i64 -4
  %2 = load i32, ptr %arrayidx.i.i, align 4
  %cmp3.i.i = icmp eq i32 %2, 0
  br i1 %cmp3.i.i, label %if.else.i, label %_ZN6vectorIjLb0EjE4backEv.exit.i

_ZN6vectorIjLb0EjE4backEv.exit.i:                 ; preds = %_ZNK6vectorIjLb0EjE5emptyEv.exit.i
  %3 = add i32 %2, -1
  %4 = zext i32 %3 to i64
  %arrayidx.i1.i.i = getelementptr inbounds i32, ptr %1, i64 %4
  %5 = load i32, ptr %arrayidx.i1.i.i, align 4
  store i32 %3, ptr %arrayidx.i.i, align 4
  br label %_ZNK7datalog23finite_product_relation16get_next_rel_idxEv.exit

if.else.i:                                        ; preds = %_ZNK6vectorIjLb0EjE5emptyEv.exit.i, %if.then
  %m_others.i = getelementptr inbounds i8, ptr %this, i64 112
  %6 = load ptr, ptr %m_others.i, align 8
  %cmp.i2.i = icmp eq ptr %6, null
  br i1 %cmp.i2.i, label %if.then.i.i, label %lor.lhs.false.i.i

lor.lhs.false.i.i:                                ; preds = %if.else.i
  %arrayidx.i3.i = getelementptr inbounds i8, ptr %6, i64 -4
  %7 = load i32, ptr %arrayidx.i3.i, align 4
  %arrayidx4.i.i = getelementptr inbounds i8, ptr %6, i64 -8
  %8 = load i32, ptr %arrayidx4.i.i, align 4
  %cmp5.i.i = icmp eq i32 %7, %8
  br i1 %cmp5.i.i, label %if.then.i.i, label %_ZN6vectorIPN7datalog13relation_baseELb0EjE9push_backEOS2_.exit.i

if.then.i.i:                                      ; preds = %lor.lhs.false.i.i, %if.else.i
  %retval.0.i9.i = phi i32 [ %7, %lor.lhs.false.i.i ], [ 0, %if.else.i ]
  tail call void @_ZN6vectorIPN7datalog13relation_baseELb0EjE13expand_vectorEv(ptr noundef nonnull align 8 dereferenceable(8) %m_others.i)
  %.pre.i.i = load ptr, ptr %m_others.i, align 8
  %arrayidx8.phi.trans.insert.i.i = getelementptr inbounds i8, ptr %.pre.i.i, i64 -4
  %.pre1.i.i = load i32, ptr %arrayidx8.phi.trans.insert.i.i, align 4
  br label %_ZN6vectorIPN7datalog13relation_baseELb0EjE9push_backEOS2_.exit.i

_ZN6vectorIPN7datalog13relation_baseELb0EjE9push_backEOS2_.exit.i: ; preds = %if.then.i.i, %lor.lhs.false.i.i
  %retval.0.i8.i = phi i32 [ %retval.0.i9.i, %if.then.i.i ], [ %7, %lor.lhs.false.i.i ]
  %9 = phi i32 [ %.pre1.i.i, %if.then.i.i ], [ %7, %lor.lhs.false.i.i ]
  %10 = phi ptr [ %.pre.i.i, %if.then.i.i ], [ %6, %lor.lhs.false.i.i ]
  %idx.ext.i.i = zext i32 %9 to i64
  %add.ptr.i.i = getelementptr inbounds ptr, ptr %10, i64 %idx.ext.i.i
  store ptr null, ptr %add.ptr.i.i, align 8
  %11 = load ptr, ptr %m_others.i, align 8
  %arrayidx10.i.i = getelementptr inbounds i8, ptr %11, i64 -4
  %12 = load i32, ptr %arrayidx10.i.i, align 4
  %inc.i.i = add i32 %12, 1
  store i32 %inc.i.i, ptr %arrayidx10.i.i, align 4
  br label %_ZNK7datalog23finite_product_relation16get_next_rel_idxEv.exit

_ZNK7datalog23finite_product_relation16get_next_rel_idxEv.exit: ; preds = %_ZN6vectorIjLb0EjE4backEv.exit.i, %_ZN6vectorIPN7datalog13relation_baseELb0EjE9push_backEOS2_.exit.i
  %res.0.i = phi i32 [ %retval.0.i8.i, %_ZN6vectorIPN7datalog13relation_baseELb0EjE9push_backEOS2_.exit.i ], [ %5, %_ZN6vectorIjLb0EjE4backEv.exit.i ]
  store i32 %res.0.i, ptr %m_full_rel_idx, align 8
  %m_other_plugin.i = getelementptr inbounds i8, ptr %this, i64 88
  %13 = load ptr, ptr %m_other_plugin.i, align 8
  %m_other_sig.i = getelementptr inbounds i8, ptr %this, i64 64
  %m_other_kind.i = getelementptr inbounds i8, ptr %this, i64 96
  %14 = load i32, ptr %m_other_kind.i, align 8
  %vtable.i = load ptr, ptr %13, align 8
  %vfn.i = getelementptr inbounds i8, ptr %vtable.i, i64 72
  %15 = load ptr, ptr %vfn.i, align 8
  %call.i = tail call noundef ptr %15(ptr noundef nonnull align 8 dereferenceable(32) %13, ptr noundef null, ptr noundef nonnull align 8 dereferenceable(8) %m_other_sig.i, i32 noundef %14)
  %m_others = getelementptr inbounds i8, ptr %this, i64 112
  %16 = load i32, ptr %m_full_rel_idx, align 8
  %17 = load ptr, ptr %m_others, align 8
  %idxprom.i = zext i32 %16 to i64
  %arrayidx.i = getelementptr inbounds ptr, ptr %17, i64 %idxprom.i
  store ptr %call.i, ptr %arrayidx.i, align 8
  %.pre = load i32, ptr %m_full_rel_idx, align 8
  br label %if.end

if.end:                                           ; preds = %_ZNK7datalog23finite_product_relation16get_next_rel_idxEv.exit, %entry
  %18 = phi i32 [ %.pre, %_ZNK7datalog23finite_product_relation16get_next_rel_idxEv.exit ], [ %0, %entry ]
  ret i32 %18
}